target datalayout = "e-m:e-p270:32:32-p271:32:32-p272:64:64-i64:64-i128:128-f80:128-n8:16:32:64-S128"
target triple = "x86_64-pc-linux-gnu"

%struct.H264Picture = type { ptr, %struct.ThreadFrame, ptr, ptr, ptr, [2 x ptr], [2 x ptr], ptr, ptr, ptr, [2 x ptr], [2 x i32], i32, i32, i32, i32, i32, [2 x [2 x [32 x i32]]], [2 x [2 x i32]], i32, i32, i32, i32, i32, i32, i32, ptr, i32, i32, i32, ptr, i32 }
%struct.ThreadFrame = type { ptr, [2 x ptr], ptr }

; Function Attrs: nounwind uwtable
define internal void @h264_copy_picture_params(ptr noundef %0, ptr noundef %1) #0 {
  %3 = alloca ptr, align 8
  %4 = alloca ptr, align 8
  %5 = alloca i32, align 4
  %6 = alloca i32, align 4
  %7 = alloca i32, align 4
  store ptr %0, ptr %3, align 8, !tbaa !4
  store ptr %1, ptr %4, align 8, !tbaa !4
  %8 = load ptr, ptr %3, align 8, !tbaa !4
  %9 = getelementptr inbounds nuw %struct.H264Picture, ptr %8, i32 0, i32 3
  %10 = load ptr, ptr %4, align 8, !tbaa !4
  %11 = getelementptr inbounds nuw %struct.H264Picture, ptr %10, i32 0, i32 3
  %12 = load ptr, ptr %11, align 8, !tbaa !26
  call void @av_refstruct_replace(ptr noundef %9, ptr noundef %12)
  %13 = load ptr, ptr %3, align 8, !tbaa !4
  %14 = getelementptr inbounds nuw %struct.H264Picture, ptr %13, i32 0, i32 7
  %15 = load ptr, ptr %4, align 8, !tbaa !4
  %16 = getelementptr inbounds nuw %struct.H264Picture, ptr %15, i32 0, i32 7
  %17 = load ptr, ptr %16, align 8, !tbaa !27
  call void @av_refstruct_replace(ptr noundef %14, ptr noundef %17)
  %18 = load ptr, ptr %3, align 8, !tbaa !4
  %19 = getelementptr inbounds nuw %struct.H264Picture, ptr %18, i32 0, i32 26
  %20 = load ptr, ptr %4, align 8, !tbaa !4
  %21 = getelementptr inbounds nuw %struct.H264Picture, ptr %20, i32 0, i32 26
  %22 = load ptr, ptr %21, align 8, !tbaa !28
  call void @av_refstruct_replace(ptr noundef %19, ptr noundef %22)
  call void @llvm.lifetime.start.p0(i64 4, ptr %5) #7
  store i32 0, ptr %5, align 4, !tbaa !9
  br label %23

23:                                               ; preds = %50, %2
  %24 = load i32, ptr %5, align 4, !tbaa !9
  %25 = icmp slt i32 %24, 2
  br i1 %25, label %27, label %26

26:                                               ; preds = %23
  call void @llvm.lifetime.end.p0(i64 4, ptr %5) #7
  br label %53

27:                                               ; preds = %23
  %28 = load ptr, ptr %3, align 8, !tbaa !4
  %29 = getelementptr inbounds nuw %struct.H264Picture, ptr %28, i32 0, i32 5
  %30 = load i32, ptr %5, align 4, !tbaa !9
  %31 = sext i32 %30 to i64
  %32 = getelementptr inbounds [2 x ptr], ptr %29, i64 0, i64 %31
  %33 = load ptr, ptr %4, align 8, !tbaa !4
  %34 = getelementptr inbounds nuw %struct.H264Picture, ptr %33, i32 0, i32 5
  %35 = load i32, ptr %5, align 4, !tbaa !9
  %36 = sext i32 %35 to i64
  %37 = getelementptr inbounds [2 x ptr], ptr %34, i64 0, i64 %36
  %38 = load ptr, ptr %37, align 8, !tbaa !29
  call void @av_refstruct_replace(ptr noundef %32, ptr noundef %38)
  %39 = load ptr, ptr %3, align 8, !tbaa !4
  %40 = getelementptr inbounds nuw %struct.H264Picture, ptr %39, i32 0, i32 10
  %41 = load i32, ptr %5, align 4, !tbaa !9
  %42 = sext i32 %41 to i64
  %43 = getelementptr inbounds [2 x ptr], ptr %40, i64 0, i64 %42
  %44 = load ptr, ptr %4, align 8, !tbaa !4
  %45 = getelementptr inbounds nuw %struct.H264Picture, ptr %44, i32 0, i32 10
  %46 = load i32, ptr %5, align 4, !tbaa !9
  %47 = sext i32 %46 to i64
  %48 = getelementptr inbounds [2 x ptr], ptr %45, i64 0, i64 %47
  %49 = load ptr, ptr %48, align 8, !tbaa !31
  call void @av_refstruct_replace(ptr noundef %43, ptr noundef %49)
  br label %50

50:                                               ; preds = %27
  %51 = load i32, ptr %5, align 4, !tbaa !9
  %52 = add nsw i32 %51, 1
  store i32 %52, ptr %5, align 4, !tbaa !9
  br label %23, !llvm.loop !32

53:                                               ; preds = %26
  %54 = load ptr, ptr %3, align 8, !tbaa !4
  %55 = getelementptr inbounds nuw %struct.H264Picture, ptr %54, i32 0, i32 9
  %56 = load ptr, ptr %4, align 8, !tbaa !4
  %57 = getelementptr inbounds nuw %struct.H264Picture, ptr %56, i32 0, i32 9
  %58 = load ptr, ptr %57, align 8, !tbaa !33
  call void @av_refstruct_replace(ptr noundef %55, ptr noundef %58)
  %59 = load ptr, ptr %3, align 8, !tbaa !4
  %60 = getelementptr inbounds nuw %struct.H264Picture, ptr %59, i32 0, i32 30
  %61 = load ptr, ptr %4, align 8, !tbaa !4
  %62 = getelementptr inbounds nuw %struct.H264Picture, ptr %61, i32 0, i32 30
  %63 = load ptr, ptr %62, align 8, !tbaa !34
  call void @av_refstruct_replace(ptr noundef %60, ptr noundef %63)
  %64 = load ptr, ptr %4, align 8, !tbaa !4
  %65 = getelementptr inbounds nuw %struct.H264Picture, ptr %64, i32 0, i32 4
  %66 = load ptr, ptr %65, align 8, !tbaa !35
  %67 = load ptr, ptr %3, align 8, !tbaa !4
  %68 = getelementptr inbounds nuw %struct.H264Picture, ptr %67, i32 0, i32 4
  store ptr %66, ptr %68, align 8, !tbaa !35
  %69 = load ptr, ptr %4, align 8, !tbaa !4
  %70 = getelementptr inbounds nuw %struct.H264Picture, ptr %69, i32 0, i32 8
  %71 = load ptr, ptr %70, align 8, !tbaa !36
  %72 = load ptr, ptr %3, align 8, !tbaa !4
  %73 = getelementptr inbounds nuw %struct.H264Picture, ptr %72, i32 0, i32 8
  store ptr %71, ptr %73, align 8, !tbaa !36
  call void @llvm.lifetime.start.p0(i64 4, ptr %6) #7
  store i32 0, ptr %6, align 4, !tbaa !9
  br label %74

74:                                               ; preds = %90, %53
  %75 = load i32, ptr %6, align 4, !tbaa !9
  %76 = icmp slt i32 %75, 2
  br i1 %76, label %78, label %77

77:                                               ; preds = %74
  call void @llvm.lifetime.end.p0(i64 4, ptr %6) #7
  br label %93

78:                                               ; preds = %74
  %79 = load ptr, ptr %4, align 8, !tbaa !4
  %80 = getelementptr inbounds nuw %struct.H264Picture, ptr %79, i32 0, i32 6
  %81 = load i32, ptr %6, align 4, !tbaa !9
  %82 = sext i32 %81 to i64
  %83 = getelementptr inbounds [2 x ptr], ptr %80, i64 0, i64 %82
  %84 = load ptr, ptr %83, align 8, !tbaa !29
  %85 = load ptr, ptr %3, align 8, !tbaa !4
  %86 = getelementptr inbounds nuw %struct.H264Picture, ptr %85, i32 0, i32 6
  %87 = load i32, ptr %6, align 4, !tbaa !9
  %88 = sext i32 %87 to i64
  %89 = getelementptr inbounds [2 x ptr], ptr %86, i64 0, i64 %88
  store ptr %84, ptr %89, align 8, !tbaa !29
  br label %90

90:                                               ; preds = %78
  %91 = load i32, ptr %6, align 4, !tbaa !9
  %92 = add nsw i32 %91, 1
  store i32 %92, ptr %6, align 4, !tbaa !9
  br label %74, !llvm.loop !37

93:                                               ; preds = %77
  call void @llvm.lifetime.start.p0(i64 4, ptr %7) #7
  store i32 0, ptr %7, align 4, !tbaa !9
  br label %94

94:                                               ; preds = %110, %93
  %95 = load i32, ptr %7, align 4, !tbaa !9
  %96 = icmp slt i32 %95, 2
  br i1 %96, label %98, label %97

97:                                               ; preds = %94
  call void @llvm.lifetime.end.p0(i64 4, ptr %7) #7
  br label %113

98:                                               ; preds = %94
  %99 = load ptr, ptr %4, align 8, !tbaa !4
  %100 = getelementptr inbounds nuw %struct.H264Picture, ptr %99, i32 0, i32 11
  %101 = load i32, ptr %7, align 4, !tbaa !9
  %102 = sext i32 %101 to i64
  %103 = getelementptr inbounds [2 x i32], ptr %100, i64 0, i64 %102
  %104 = load i32, ptr %103, align 4, !tbaa !9
  %105 = load ptr, ptr %3, align 8, !tbaa !4
  %106 = getelementptr inbounds nuw %struct.H264Picture, ptr %105, i32 0, i32 11
  %107 = load i32, ptr %7, align 4, !tbaa !9
  %108 = sext i32 %107 to i64
  %109 = getelementptr inbounds [2 x i32], ptr %106, i64 0, i64 %108
  store i32 %104, ptr %109, align 4, !tbaa !9
  br label %110

110:                                              ; preds = %98
  %111 = load i32, ptr %7, align 4, !tbaa !9
  %112 = add nsw i32 %111, 1
  store i32 %112, ptr %7, align 4, !tbaa !9
  br label %94, !llvm.loop !38

113:                                              ; preds = %97
  %114 = load ptr, ptr %3, align 8, !tbaa !4
  %115 = getelementptr inbounds nuw %struct.H264Picture, ptr %114, i32 0, i32 17
  %116 = getelementptr inbounds [2 x [2 x [32 x i32]]], ptr %115, i64 0, i64 0
  %117 = load ptr, ptr %4, align 8, !tbaa !4
  %118 = getelementptr inbounds nuw %struct.H264Picture, ptr %117, i32 0, i32 17
  %119 = getelementptr inbounds [2 x [2 x [32 x i32]]], ptr %118, i64 0, i64 0
  call void @llvm.memcpy.p0.p0.i64(ptr align 4 %116, ptr align 4 %119, i64 512, i1 false)
  %120 = load ptr, ptr %3, align 8, !tbaa !4
  %121 = getelementptr inbounds nuw %struct.H264Picture, ptr %120, i32 0, i32 18
  %122 = getelementptr inbounds [2 x [2 x i32]], ptr %121, i64 0, i64 0
  %123 = load ptr, ptr %4, align 8, !tbaa !4
  %124 = getelementptr inbounds nuw %struct.H264Picture, ptr %123, i32 0, i32 18
  %125 = getelementptr inbounds [2 x [2 x i32]], ptr %124, i64 0, i64 0
  call void @llvm.memcpy.p0.p0.i64(ptr align 4 %122, ptr align 4 %125, i64 16, i1 false)
  %126 = load ptr, ptr %4, align 8, !tbaa !4
  %127 = getelementptr inbounds nuw %struct.H264Picture, ptr %126, i32 0, i32 12
  %128 = load i32, ptr %127, align 8, !tbaa !39
  %129 = load ptr, ptr %3, align 8, !tbaa !4
  %130 = getelementptr inbounds nuw %struct.H264Picture, ptr %129, i32 0, i32 12
  store i32 %128, ptr %130, align 8, !tbaa !39
  %131 = load ptr, ptr %4, align 8, !tbaa !4
  %132 = getelementptr inbounds nuw %struct.H264Picture, ptr %131, i32 0, i32 13
  %133 = load i32, ptr %132, align 4, !tbaa !40
  %134 = load ptr, ptr %3, align 8, !tbaa !4
  %135 = getelementptr inbounds nuw %struct.H264Picture, ptr %134, i32 0, i32 13
  store i32 %133, ptr %135, align 4, !tbaa !40
  %136 = load ptr, ptr %4, align 8, !tbaa !4
  %137 = getelementptr inbounds nuw %struct.H264Picture, ptr %136, i32 0, i32 14
  %138 = load i32, ptr %137, align 8, !tbaa !41
  %139 = load ptr, ptr %3, align 8, !tbaa !4
  %140 = getelementptr inbounds nuw %struct.H264Picture, ptr %139, i32 0, i32 14
  store i32 %138, ptr %140, align 8, !tbaa !41
  %141 = load ptr, ptr %4, align 8, !tbaa !4
  %142 = getelementptr inbounds nuw %struct.H264Picture, ptr %141, i32 0, i32 16
  %143 = load i32, ptr %142, align 8, !tbaa !42
  %144 = load ptr, ptr %3, align 8, !tbaa !4
  %145 = getelementptr inbounds nuw %struct.H264Picture, ptr %144, i32 0, i32 16
  store i32 %143, ptr %145, align 8, !tbaa !42
  %146 = load ptr, ptr %4, align 8, !tbaa !4
  %147 = getelementptr inbounds nuw %struct.H264Picture, ptr %146, i32 0, i32 19
  %148 = load i32, ptr %147, align 4, !tbaa !43
  %149 = load ptr, ptr %3, align 8, !tbaa !4
  %150 = getelementptr inbounds nuw %struct.H264Picture, ptr %149, i32 0, i32 19
  store i32 %148, ptr %150, align 4, !tbaa !43
  %151 = load ptr, ptr %4, align 8, !tbaa !4
  %152 = getelementptr inbounds nuw %struct.H264Picture, ptr %151, i32 0, i32 20
  %153 = load i32, ptr %152, align 8, !tbaa !44
  %154 = load ptr, ptr %3, align 8, !tbaa !4
  %155 = getelementptr inbounds nuw %struct.H264Picture, ptr %154, i32 0, i32 20
  store i32 %153, ptr %155, align 8, !tbaa !44
  %156 = load ptr, ptr %4, align 8, !tbaa !4
  %157 = getelementptr inbounds nuw %struct.H264Picture, ptr %156, i32 0, i32 21
  %158 = load i32, ptr %157, align 4, !tbaa !45
  %159 = load ptr, ptr %3, align 8, !tbaa !4
  %160 = getelementptr inbounds nuw %struct.H264Picture, ptr %159, i32 0, i32 21
  store i32 %158, ptr %160, align 4, !tbaa !45
  %161 = load ptr, ptr %4, align 8, !tbaa !4
  %162 = getelementptr inbounds nuw %struct.H264Picture, ptr %161, i32 0, i32 22
  %163 = load i32, ptr %162, align 8, !tbaa !46
  %164 = load ptr, ptr %3, align 8, !tbaa !4
  %165 = getelementptr inbounds nuw %struct.H264Picture, ptr %164, i32 0, i32 22
  store i32 %163, ptr %165, align 8, !tbaa !46
  %166 = load ptr, ptr %4, align 8, !tbaa !4
  %167 = getelementptr inbounds nuw %struct.H264Picture, ptr %166, i32 0, i32 31
  %168 = load i32, ptr %167, align 8, !tbaa !47
  %169 = load ptr, ptr %3, align 8, !tbaa !4
  %170 = getelementptr inbounds nuw %struct.H264Picture, ptr %169, i32 0, i32 31
  store i32 %168, ptr %170, align 8, !tbaa !47
  %171 = load ptr, ptr %4, align 8, !tbaa !4
  %172 = getelementptr inbounds nuw %struct.H264Picture, ptr %171, i32 0, i32 23
  %173 = load i32, ptr %172, align 4, !tbaa !48
  %174 = load ptr, ptr %3, align 8, !tbaa !4
  %175 = getelementptr inbounds nuw %struct.H264Picture, ptr %174, i32 0, i32 23
  store i32 %173, ptr %175, align 4, !tbaa !48
  %176 = load ptr, ptr %4, align 8, !tbaa !4
  %177 = getelementptr inbounds nuw %struct.H264Picture, ptr %176, i32 0, i32 24
  %178 = load i32, ptr %177, align 8, !tbaa !49
  %179 = load ptr, ptr %3, align 8, !tbaa !4
  %180 = getelementptr inbounds nuw %struct.H264Picture, ptr %179, i32 0, i32 24
  store i32 %178, ptr %180, align 8, !tbaa !49
  %181 = load ptr, ptr %4, align 8, !tbaa !4
  %182 = getelementptr inbounds nuw %struct.H264Picture, ptr %181, i32 0, i32 27
  %183 = load i32, ptr %182, align 8, !tbaa !50
  %184 = load ptr, ptr %3, align 8, !tbaa !4
  %185 = getelementptr inbounds nuw %struct.H264Picture, ptr %184, i32 0, i32 27
  store i32 %183, ptr %185, align 8, !tbaa !50
  %186 = load ptr, ptr %4, align 8, !tbaa !4
  %187 = getelementptr inbounds nuw %struct.H264Picture, ptr %186, i32 0, i32 28
  %188 = load i32, ptr %187, align 4, !tbaa !51
  %189 = load ptr, ptr %3, align 8, !tbaa !4
  %190 = getelementptr inbounds nuw %struct.H264Picture, ptr %189, i32 0, i32 28
  store i32 %188, ptr %190, align 4, !tbaa !51
  %191 = load ptr, ptr %4, align 8, !tbaa !4
  %192 = getelementptr inbounds nuw %struct.H264Picture, ptr %191, i32 0, i32 29
  %193 = load i32, ptr %192, align 8, !tbaa !52
  %194 = load ptr, ptr %3, align 8, !tbaa !4
  %195 = getelementptr inbounds nuw %struct.H264Picture, ptr %194, i32 0, i32 29
  store i32 %193, ptr %195, align 8, !tbaa !52
  %196 = load ptr, ptr %4, align 8, !tbaa !4
  %197 = getelementptr inbounds nuw %struct.H264Picture, ptr %196, i32 0, i32 25
  %198 = load i32, ptr %197, align 4, !tbaa !25
  %199 = load ptr, ptr %3, align 8, !tbaa !4
  %200 = getelementptr inbounds nuw %struct.H264Picture, ptr %199, i32 0, i32 25
  store i32 %198, ptr %200, align 4, !tbaa !25
  ret void
}