; Function Attrs: nounwind uwtable
define internal fastcc void @h264_copy_picture_params(ptr noundef %0, ptr noundef readonly captures(none) %1) unnamed_addr #0 {
.critedge:
  %2 = getelementptr inbounds nuw i8, ptr %0, i64 48
  %3 = getelementptr inbounds nuw i8, ptr %1, i64 48
  %4 = load ptr, ptr %3, align 8, !tbaa !21
  tail call void @av_refstruct_replace(ptr noundef nonnull %2, ptr noundef %4) #6
  %5 = getelementptr inbounds nuw i8, ptr %0, i64 96
  %6 = getelementptr inbounds nuw i8, ptr %1, i64 96
  %7 = load ptr, ptr %6, align 8, !tbaa !22
  tail call void @av_refstruct_replace(ptr noundef nonnull %5, ptr noundef %7) #6
  %8 = getelementptr inbounds nuw i8, ptr %0, i64 720
  %9 = getelementptr inbounds nuw i8, ptr %1, i64 720
  %10 = load ptr, ptr %9, align 8, !tbaa !23
  tail call void @av_refstruct_replace(ptr noundef nonnull %8, ptr noundef %10) #6
  %11 = getelementptr inbounds nuw i8, ptr %0, i64 64
  %12 = getelementptr inbounds nuw i8, ptr %1, i64 64
  %13 = getelementptr inbounds nuw i8, ptr %0, i64 120
  %14 = getelementptr inbounds nuw i8, ptr %1, i64 120
  %15 = load ptr, ptr %12, align 8, !tbaa !24
  tail call void @av_refstruct_replace(ptr noundef nonnull %11, ptr noundef %15) #6
  %16 = load ptr, ptr %14, align 8, !tbaa !26
  tail call void @av_refstruct_replace(ptr noundef nonnull %13, ptr noundef %16) #6
  %17 = getelementptr inbounds nuw i8, ptr %0, i64 72
  %18 = getelementptr inbounds nuw i8, ptr %1, i64 72
  %19 = load ptr, ptr %18, align 8, !tbaa !24
  tail call void @av_refstruct_replace(ptr noundef nonnull %17, ptr noundef %19) #6
  %20 = getelementptr inbounds nuw i8, ptr %0, i64 128
  %21 = getelementptr inbounds nuw i8, ptr %1, i64 128
  %22 = load ptr, ptr %21, align 8, !tbaa !26
  tail call void @av_refstruct_replace(ptr noundef nonnull %20, ptr noundef %22) #6
  %23 = getelementptr inbounds nuw i8, ptr %0, i64 112
  %24 = getelementptr inbounds nuw i8, ptr %1, i64 112
  %25 = load ptr, ptr %24, align 8, !tbaa !27
  tail call void @av_refstruct_replace(ptr noundef nonnull %23, ptr noundef %25) #6
  %26 = getelementptr inbounds nuw i8, ptr %0, i64 744
  %27 = getelementptr inbounds nuw i8, ptr %1, i64 744
  %28 = load ptr, ptr %27, align 8, !tbaa !28
  tail call void @av_refstruct_replace(ptr noundef nonnull %26, ptr noundef %28) #6
  %29 = getelementptr inbounds nuw i8, ptr %1, i64 56
  %30 = load ptr, ptr %29, align 8, !tbaa !29
  %31 = getelementptr inbounds nuw i8, ptr %0, i64 56
  store ptr %30, ptr %31, align 8, !tbaa !29
  %32 = getelementptr inbounds nuw i8, ptr %1, i64 104
  %33 = load ptr, ptr %32, align 8, !tbaa !30
  %34 = getelementptr inbounds nuw i8, ptr %0, i64 104
  store ptr %33, ptr %34, align 8, !tbaa !30
  %35 = getelementptr inbounds nuw i8, ptr %1, i64 80
  %36 = getelementptr inbounds nuw i8, ptr %0, i64 80
  %37 = load ptr, ptr %35, align 8, !tbaa !24
  store ptr %37, ptr %36, align 8, !tbaa !24
  %38 = getelementptr inbounds nuw i8, ptr %1, i64 88
  %39 = load ptr, ptr %38, align 8, !tbaa !24
  %40 = getelementptr inbounds nuw i8, ptr %0, i64 88
  store ptr %39, ptr %40, align 8, !tbaa !24
  %41 = getelementptr inbounds nuw i8, ptr %1, i64 136
  %42 = getelementptr inbounds nuw i8, ptr %0, i64 136
  %43 = load i32, ptr %41, align 4, !tbaa !31
  store i32 %43, ptr %42, align 4, !tbaa !31
  %44 = getelementptr inbounds nuw i8, ptr %1, i64 140
  %45 = load i32, ptr %44, align 4, !tbaa !31
  %46 = getelementptr inbounds nuw i8, ptr %0, i64 140
  store i32 %45, ptr %46, align 4, !tbaa !31
  %47 = getelementptr inbounds nuw i8, ptr %0, i64 164
  %48 = getelementptr inbounds nuw i8, ptr %1, i64 164
  tail call void @llvm.memcpy.p0.p0.i64(ptr noundef nonnull align 4 dereferenceable(512) %47, ptr noundef nonnull align 4 dereferenceable(512) %48, i64 512, i1 false)
  %49 = getelementptr inbounds nuw i8, ptr %0, i64 676
  %50 = getelementptr inbounds nuw i8, ptr %1, i64 676
  tail call void @llvm.memcpy.p0.p0.i64(ptr noundef nonnull align 4 dereferenceable(16) %49, ptr noundef nonnull align 4 dereferenceable(16) %50, i64 16, i1 false)
  %51 = getelementptr inbounds nuw i8, ptr %1, i64 144
  %52 = load i32, ptr %51, align 8, !tbaa !32
  %53 = getelementptr inbounds nuw i8, ptr %0, i64 144
  store i32 %52, ptr %53, align 8, !tbaa !32
  %54 = getelementptr inbounds nuw i8, ptr %1, i64 148
  %55 = load i32, ptr %54, align 4, !tbaa !33
  %56 = getelementptr inbounds nuw i8, ptr %0, i64 148
  store i32 %55, ptr %56, align 4, !tbaa !33
  %57 = getelementptr inbounds nuw i8, ptr %1, i64 152
  %58 = load i32, ptr %57, align 8, !tbaa !34
  %59 = getelementptr inbounds nuw i8, ptr %0, i64 152
  store i32 %58, ptr %59, align 8, !tbaa !34
  %60 = getelementptr inbounds nuw i8, ptr %1, i64 160
  %61 = load i32, ptr %60, align 8, !tbaa !35
  %62 = getelementptr inbounds nuw i8, ptr %0, i64 160
  store i32 %61, ptr %62, align 8, !tbaa !35
  %63 = getelementptr inbounds nuw i8, ptr %1, i64 692
  %64 = load i32, ptr %63, align 4, !tbaa !36
  %65 = getelementptr inbounds nuw i8, ptr %0, i64 692
  store i32 %64, ptr %65, align 4, !tbaa !36
  %66 = getelementptr inbounds nuw i8, ptr %1, i64 696
  %67 = load i32, ptr %66, align 8, !tbaa !37
  %68 = getelementptr inbounds nuw i8, ptr %0, i64 696
  store i32 %67, ptr %68, align 8, !tbaa !37
  %69 = getelementptr inbounds nuw i8, ptr %1, i64 700
  %70 = load i32, ptr %69, align 4, !tbaa !38
  %71 = getelementptr inbounds nuw i8, ptr %0, i64 700
  store i32 %70, ptr %71, align 4, !tbaa !38
  %72 = getelementptr inbounds nuw i8, ptr %1, i64 704
  %73 = load i32, ptr %72, align 8, !tbaa !39
  %74 = getelementptr inbounds nuw i8, ptr %0, i64 704
  store i32 %73, ptr %74, align 8, !tbaa !39
  %75 = getelementptr inbounds nuw i8, ptr %1, i64 752
  %76 = load i32, ptr %75, align 8, !tbaa !40
  %77 = getelementptr inbounds nuw i8, ptr %0, i64 752
  store i32 %76, ptr %77, align 8, !tbaa !40
  %78 = getelementptr inbounds nuw i8, ptr %1, i64 708
  %79 = load i32, ptr %78, align 4, !tbaa !41
  %80 = getelementptr inbounds nuw i8, ptr %0, i64 708
  store i32 %79, ptr %80, align 4, !tbaa !41
  %81 = getelementptr inbounds nuw i8, ptr %1, i64 712
  %82 = load i32, ptr %81, align 8, !tbaa !42
  %83 = getelementptr inbounds nuw i8, ptr %0, i64 712
  store i32 %82, ptr %83, align 8, !tbaa !42
  %84 = getelementptr inbounds nuw i8, ptr %1, i64 728
  %85 = load i32, ptr %84, align 8, !tbaa !43
  %86 = getelementptr inbounds nuw i8, ptr %0, i64 728
  store i32 %85, ptr %86, align 8, !tbaa !43
  %87 = getelementptr inbounds nuw i8, ptr %1, i64 732
  %88 = load i32, ptr %87, align 4, !tbaa !44
  %89 = getelementptr inbounds nuw i8, ptr %0, i64 732
  store i32 %88, ptr %89, align 4, !tbaa !44
  %90 = getelementptr inbounds nuw i8, ptr %1, i64 736
  %91 = load i32, ptr %90, align 8, !tbaa !45
  %92 = getelementptr inbounds nuw i8, ptr %0, i64 736
  store i32 %91, ptr %92, align 8, !tbaa !45
  %93 = getelementptr inbounds nuw i8, ptr %1, i64 716
  %94 = load i32, ptr %93, align 4, !tbaa !20
  %95 = getelementptr inbounds nuw i8, ptr %0, i64 716
  store i32 %94, ptr %95, align 4, !tbaa !20
  ret void
}